target datalayout = "e-m:e-p270:32:32-p271:32:32-p272:64:64-i64:64-i128:128-f80:128-n8:16:32:64-S128"
target triple = "x86_64-pc-linux-gnu"

%struct.ossl_decoder_ctx_st = type { ptr, ptr, i32, ptr, ptr, ptr, ptr, %struct.ossl_passphrase_data_st, i32 }
%struct.ossl_passphrase_data_st = type { i32, %union.anon, i8, ptr, i64 }
%union.anon = type { %struct.anon }
%struct.anon = type { ptr, i64 }
%struct.collect_data_st = type { ptr, ptr, ptr, i32, i32, i32, i8, i8, ptr }
%struct.ossl_decoder_st = type { %struct.ossl_endecode_base_st, ptr, ptr, ptr, ptr, ptr, ptr, ptr, ptr, ptr }
%struct.ossl_endecode_base_st = type { ptr, i32, ptr, ptr, ptr, %struct.CRYPTO_REF_COUNT }
%struct.CRYPTO_REF_COUNT = type { i32 }
%struct.evp_keymgmt_st = type { i32, i32, i32, ptr, ptr, ptr, %struct.CRYPTO_REF_COUNT, ptr, ptr, ptr, ptr, ptr, ptr, ptr, ptr, ptr, ptr, ptr, ptr, ptr, ptr, ptr, ptr, ptr, ptr, ptr, ptr, ptr, ptr, ptr, ptr, ptr, ptr }

; Function Attrs: nounwind uwtable
define internal void @collect_decoder_keymgmt(ptr noundef %0, ptr noundef %1, ptr noundef %2, ptr noundef %3) #0 {
  %5 = alloca ptr, align 8
  %6 = alloca ptr, align 8
  %7 = alloca ptr, align 8
  %8 = alloca ptr, align 8
  %9 = alloca ptr, align 8
  %10 = alloca ptr, align 8
  %11 = alloca i32, align 4
  %12 = alloca ptr, align 8
  store ptr %0, ptr %5, align 8, !tbaa !58
  store ptr %1, ptr %6, align 8, !tbaa !62
  store ptr %2, ptr %7, align 8, !tbaa !14
  store ptr %3, ptr %8, align 8, !tbaa !60
  call void @llvm.lifetime.start.p0(i64 8, ptr %9) #7
  store ptr null, ptr %9, align 8, !tbaa !14
  call void @llvm.lifetime.start.p0(i64 8, ptr %10) #7
  store ptr null, ptr %10, align 8, !tbaa !74
  %13 = load ptr, ptr %5, align 8, !tbaa !58
  %14 = getelementptr inbounds nuw %struct.evp_keymgmt_st, ptr %13, i32 0, i32 1
  %15 = load i32, ptr %14, align 4, !tbaa !96
  %16 = load ptr, ptr %6, align 8, !tbaa !62
  %17 = getelementptr inbounds nuw %struct.ossl_decoder_st, ptr %16, i32 0, i32 0
  %18 = getelementptr inbounds nuw %struct.ossl_endecode_base_st, ptr %17, i32 0, i32 1
  %19 = load i32, ptr %18, align 8, !tbaa !98
  %20 = icmp ne i32 %15, %19
  br i1 %20, label %21, label %22

21:                                               ; preds = %4
  store i32 1, ptr %11, align 4
  br label %63

22:                                               ; preds = %4
  %23 = load ptr, ptr %6, align 8, !tbaa !62
  %24 = getelementptr inbounds nuw %struct.ossl_decoder_st, ptr %23, i32 0, i32 1
  %25 = load ptr, ptr %24, align 8, !tbaa !99
  %26 = load ptr, ptr %7, align 8, !tbaa !14
  %27 = call ptr %25(ptr noundef %26)
  store ptr %27, ptr %9, align 8, !tbaa !14
  %28 = icmp eq ptr %27, null
  br i1 %28, label %29, label %32

29:                                               ; preds = %22
  %30 = load ptr, ptr %8, align 8, !tbaa !60
  %31 = getelementptr inbounds nuw %struct.collect_data_st, ptr %30, i32 0, i32 6
  store i8 1, ptr %31, align 4, !tbaa !55
  store i32 1, ptr %11, align 4
  br label %63

32:                                               ; preds = %22
  %33 = load ptr, ptr %6, align 8, !tbaa !62
  %34 = load ptr, ptr %9, align 8, !tbaa !14
  %35 = call ptr @ossl_decoder_instance_new(ptr noundef %33, ptr noundef %34)
  store ptr %35, ptr %10, align 8, !tbaa !74
  %36 = icmp eq ptr %35, null
  br i1 %36, label %37, label %44

37:                                               ; preds = %32
  %38 = load ptr, ptr %6, align 8, !tbaa !62
  %39 = getelementptr inbounds nuw %struct.ossl_decoder_st, ptr %38, i32 0, i32 2
  %40 = load ptr, ptr %39, align 8, !tbaa !100
  %41 = load ptr, ptr %9, align 8, !tbaa !14
  call void %40(ptr noundef %41)
  %42 = load ptr, ptr %8, align 8, !tbaa !60
  %43 = getelementptr inbounds nuw %struct.collect_data_st, ptr %42, i32 0, i32 6
  store i8 1, ptr %43, align 4, !tbaa !55
  store i32 1, ptr %11, align 4
  br label %63

44:                                               ; preds = %32
  br label %45

45:                                               ; preds = %44
  call void @llvm.lifetime.start.p0(i64 8, ptr %12) #7
  store ptr null, ptr %12, align 8, !tbaa !34
  call void @llvm.lifetime.end.p0(i64 8, ptr %12) #7
  br label %46

46:                                               ; preds = %45
  br label %47

47:                                               ; preds = %46
  %48 = load ptr, ptr %8, align 8, !tbaa !60
  %49 = getelementptr inbounds nuw %struct.collect_data_st, ptr %48, i32 0, i32 1
  %50 = load ptr, ptr %49, align 8, !tbaa !50
  %51 = load ptr, ptr %10, align 8, !tbaa !74
  %52 = call i32 @ossl_decoder_ctx_add_decoder_inst(ptr noundef %50, ptr noundef %51)
  %53 = icmp ne i32 %52, 0
  br i1 %53, label %58, label %54

54:                                               ; preds = %47
  %55 = load ptr, ptr %10, align 8, !tbaa !74
  call void @ossl_decoder_instance_free(ptr noundef %55)
  %56 = load ptr, ptr %8, align 8, !tbaa !60
  %57 = getelementptr inbounds nuw %struct.collect_data_st, ptr %56, i32 0, i32 6
  store i8 1, ptr %57, align 4, !tbaa !55
  store i32 1, ptr %11, align 4
  br label %63

58:                                               ; preds = %47
  %59 = load ptr, ptr %8, align 8, !tbaa !60
  %60 = getelementptr inbounds nuw %struct.collect_data_st, ptr %59, i32 0, i32 5
  %61 = load i32, ptr %60, align 8, !tbaa !101
  %62 = add nsw i32 %61, 1
  store i32 %62, ptr %60, align 8, !tbaa !101
  store i32 0, ptr %11, align 4
  br label %63

63:                                               ; preds = %58, %54, %37, %29, %21
  call void @llvm.lifetime.end.p0(i64 8, ptr %10) #7
  call void @llvm.lifetime.end.p0(i64 8, ptr %9) #7
  %64 = load i32, ptr %11, align 4
  switch i32 %64, label %66 [
    i32 0, label %65
    i32 1, label %65
  ]

65:                                               ; preds = %63, %63
  ret void

66:                                               ; preds = %63
  unreachable
}

; Function Attrs: inlinehint nounwind uwtable
define internal ptr @sk_EVP_KEYMGMT_value(ptr noundef %0, i32 noundef %1) #3 {
  %3 = alloca ptr, align 8
  %4 = alloca i32, align 4
  store ptr %0, ptr %3, align 8, !tbaa !38
  store i32 %1, ptr %4, align 4, !tbaa !28
  %5 = load ptr, ptr %3, align 8, !tbaa !38
  %6 = load i32, ptr %4, align 4, !tbaa !28
  %7 = call ptr @OPENSSL_sk_value(ptr noundef %5, i32 noundef %6)
  ret ptr %7
}

; Function Attrs: inlinehint nounwind uwtable
define internal i32 @sk_EVP_KEYMGMT_num(ptr noundef %0) #3 {
  %2 = alloca ptr, align 8
  store ptr %0, ptr %2, align 8, !tbaa !38
  %3 = load ptr, ptr %2, align 8, !tbaa !38
  %4 = call i32 @OPENSSL_sk_num(ptr noundef %3)
  ret i32 %4
}

; Function Attrs: nounwind uwtable
define internal void @collect_decoder(ptr noundef %0, ptr noundef %1) #0 {
  %3 = alloca ptr, align 8
  %4 = alloca ptr, align 8
  %5 = alloca ptr, align 8
  %6 = alloca ptr, align 8
  %7 = alloca i32, align 4
  %8 = alloca i32, align 4
  %9 = alloca ptr, align 8
  %10 = alloca ptr, align 8
  %11 = alloca ptr, align 8
  %12 = alloca i32, align 4
  %13 = alloca ptr, align 8
  store ptr %0, ptr %3, align 8, !tbaa !62
  store ptr %1, ptr %4, align 8, !tbaa !14
  call void @llvm.lifetime.start.p0(i64 8, ptr %5) #7
  %14 = load ptr, ptr %4, align 8, !tbaa !14
  store ptr %14, ptr %5, align 8, !tbaa !60
  call void @llvm.lifetime.start.p0(i64 8, ptr %6) #7
  %15 = load ptr, ptr %5, align 8, !tbaa !60
  %16 = getelementptr inbounds nuw %struct.collect_data_st, ptr %15, i32 0, i32 8
  %17 = load ptr, ptr %16, align 8, !tbaa !53
  store ptr %17, ptr %6, align 8, !tbaa !38
  call void @llvm.lifetime.start.p0(i64 4, ptr %7) #7
  call void @llvm.lifetime.start.p0(i64 4, ptr %8) #7
  call void @llvm.lifetime.start.p0(i64 8, ptr %9) #7
  call void @llvm.lifetime.start.p0(i64 8, ptr %10) #7
  call void @llvm.lifetime.start.p0(i64 8, ptr %11) #7
  %18 = load ptr, ptr %5, align 8, !tbaa !60
  %19 = getelementptr inbounds nuw %struct.collect_data_st, ptr %18, i32 0, i32 6
  %20 = load i8, ptr %19, align 4, !tbaa !55
  %21 = icmp ne i8 %20, 0
  br i1 %21, label %22, label %23

22:                                               ; preds = %2
  store i32 1, ptr %12, align 4
  br label %73

23:                                               ; preds = %2
  %24 = load ptr, ptr %3, align 8, !tbaa !62
  %25 = call ptr @OSSL_DECODER_get0_provider(ptr noundef %24)
  store ptr %25, ptr %10, align 8, !tbaa !64
  %26 = load ptr, ptr %10, align 8, !tbaa !64
  %27 = call ptr @OSSL_PROVIDER_get0_provider_ctx(ptr noundef %26)
  store ptr %27, ptr %11, align 8, !tbaa !14
  %28 = load ptr, ptr %3, align 8, !tbaa !62
  %29 = getelementptr inbounds nuw %struct.ossl_decoder_st, ptr %28, i32 0, i32 7
  %30 = load ptr, ptr %29, align 8, !tbaa !66
  %31 = icmp ne ptr %30, null
  br i1 %31, label %32, label %45

32:                                               ; preds = %23
  %33 = load ptr, ptr %3, align 8, !tbaa !62
  %34 = getelementptr inbounds nuw %struct.ossl_decoder_st, ptr %33, i32 0, i32 7
  %35 = load ptr, ptr %34, align 8, !tbaa !66
  %36 = load ptr, ptr %11, align 8, !tbaa !14
  %37 = load ptr, ptr %5, align 8, !tbaa !60
  %38 = getelementptr inbounds nuw %struct.collect_data_st, ptr %37, i32 0, i32 1
  %39 = load ptr, ptr %38, align 8, !tbaa !50
  %40 = getelementptr inbounds nuw %struct.ossl_decoder_ctx_st, ptr %39, i32 0, i32 2
  %41 = load i32, ptr %40, align 8, !tbaa !44
  %42 = call i32 %35(ptr noundef %36, i32 noundef %41)
  %43 = icmp ne i32 %42, 0
  br i1 %43, label %45, label %44

44:                                               ; preds = %32
  store i32 1, ptr %12, align 4
  br label %73

45:                                               ; preds = %32, %23
  br label %46

46:                                               ; preds = %45
  call void @llvm.lifetime.start.p0(i64 8, ptr %13) #7
  store ptr null, ptr %13, align 8, !tbaa !34
  call void @llvm.lifetime.end.p0(i64 8, ptr %13) #7
  br label %47

47:                                               ; preds = %46
  br label %48

48:                                               ; preds = %47
  %49 = load ptr, ptr %6, align 8, !tbaa !38
  %50 = call i32 @sk_EVP_KEYMGMT_num(ptr noundef %49)
  store i32 %50, ptr %8, align 4, !tbaa !28
  store i32 0, ptr %7, align 4, !tbaa !28
  br label %51

51:                                               ; preds = %69, %48
  %52 = load i32, ptr %7, align 4, !tbaa !28
  %53 = load i32, ptr %8, align 4, !tbaa !28
  %54 = icmp slt i32 %52, %53
  br i1 %54, label %55, label %72

55:                                               ; preds = %51
  %56 = load ptr, ptr %6, align 8, !tbaa !38
  %57 = load i32, ptr %7, align 4, !tbaa !28
  %58 = call ptr @sk_EVP_KEYMGMT_value(ptr noundef %56, i32 noundef %57)
  store ptr %58, ptr %9, align 8, !tbaa !58
  %59 = load ptr, ptr %9, align 8, !tbaa !58
  %60 = load ptr, ptr %3, align 8, !tbaa !62
  %61 = load ptr, ptr %11, align 8, !tbaa !14
  %62 = load ptr, ptr %5, align 8, !tbaa !60
  call void @collect_decoder_keymgmt(ptr noundef %59, ptr noundef %60, ptr noundef %61, ptr noundef %62)
  %63 = load ptr, ptr %5, align 8, !tbaa !60
  %64 = getelementptr inbounds nuw %struct.collect_data_st, ptr %63, i32 0, i32 6
  %65 = load i8, ptr %64, align 4, !tbaa !55
  %66 = icmp ne i8 %65, 0
  br i1 %66, label %67, label %68

67:                                               ; preds = %55
  store i32 1, ptr %12, align 4
  br label %73

68:                                               ; preds = %55
  br label %69

69:                                               ; preds = %68
  %70 = load i32, ptr %7, align 4, !tbaa !28
  %71 = add nsw i32 %70, 1
  store i32 %71, ptr %7, align 4, !tbaa !28
  br label %51, !llvm.loop !72

72:                                               ; preds = %51
  store i32 0, ptr %12, align 4
  br label %73

73:                                               ; preds = %72, %67, %44, %22
  call void @llvm.lifetime.end.p0(i64 8, ptr %11) #7
  call void @llvm.lifetime.end.p0(i64 8, ptr %10) #7
  call void @llvm.lifetime.end.p0(i64 8, ptr %9) #7
  call void @llvm.lifetime.end.p0(i64 4, ptr %8) #7
  call void @llvm.lifetime.end.p0(i64 4, ptr %7) #7
  call void @llvm.lifetime.end.p0(i64 8, ptr %6) #7
  call void @llvm.lifetime.end.p0(i64 8, ptr %5) #7
  %74 = load i32, ptr %12, align 4
  switch i32 %74, label %76 [
    i32 0, label %75
    i32 1, label %75
  ]

75:                                               ; preds = %73, %73
  ret void

76:                                               ; preds = %73
  unreachable
}