; Function Attrs: nounwind uwtable
define internal void @collect_decoder(ptr noundef %0, ptr noundef captures(none) %1) #0 {
  %3 = getelementptr inbounds nuw i8, ptr %1, i64 40
  %4 = load ptr, ptr %3, align 8, !tbaa !41
  %5 = getelementptr inbounds nuw i8, ptr %1, i64 36
  %6 = load i8, ptr %5, align 4, !tbaa !43
  %.not = icmp eq i8 %6, 0
  br i1 %.not, label %7, label %collect_decoder_keymgmt.exit.thread

7:                                                ; preds = %2
  %8 = tail call ptr @OSSL_DECODER_get0_provider(ptr noundef %0) #7
  %9 = tail call ptr @OSSL_PROVIDER_get0_provider_ctx(ptr noundef %8) #7
  %10 = getelementptr inbounds nuw i8, ptr %0, i64 96
  %11 = load ptr, ptr %10, align 8, !tbaa !54
  %.not20 = icmp eq ptr %11, null
  br i1 %.not20, label %18, label %12

12:                                               ; preds = %7
  %13 = getelementptr inbounds nuw i8, ptr %1, i64 8
  %14 = load ptr, ptr %13, align 8, !tbaa !38
  %15 = getelementptr inbounds nuw i8, ptr %14, i64 16
  %16 = load i32, ptr %15, align 8, !tbaa !32
  %17 = tail call i32 %11(ptr noundef %9, i32 noundef %16) #7
  %.not21 = icmp eq i32 %17, 0
  br i1 %.not21, label %collect_decoder_keymgmt.exit.thread, label %18

18:                                               ; preds = %7, %12
  %19 = tail call i32 @OPENSSL_sk_num(ptr noundef %4) #7
  %20 = icmp sgt i32 %19, 0
  br i1 %20, label %.lr.ph, label %collect_decoder_keymgmt.exit.thread

.lr.ph:                                           ; preds = %18
  %21 = getelementptr inbounds nuw i8, ptr %0, i64 8
  %22 = getelementptr inbounds nuw i8, ptr %0, i64 48
  %23 = getelementptr inbounds nuw i8, ptr %1, i64 8
  %24 = getelementptr inbounds nuw i8, ptr %1, i64 32
  br label %25

25:                                               ; preds = %collect_decoder_keymgmt.exit, %.lr.ph
  %.028 = phi i32 [ 0, %.lr.ph ], [ %46, %collect_decoder_keymgmt.exit ]
  %26 = tail call ptr @OPENSSL_sk_value(ptr noundef %4, i32 noundef %.028) #7
  %27 = getelementptr i8, ptr %26, i64 4
  %.val = load i32, ptr %27, align 4, !tbaa !50
  %28 = load i32, ptr %21, align 8, !tbaa !59
  %.not.i = icmp eq i32 %.val, %28
  br i1 %.not.i, label %29, label %collect_decoder_keymgmt.exit

29:                                               ; preds = %25
  %30 = load ptr, ptr %22, align 8, !tbaa !60
  %31 = tail call ptr %30(ptr noundef %9) #7
  %32 = icmp eq ptr %31, null
  br i1 %32, label %collect_decoder_keymgmt.exit.thread.sink.split, label %33

33:                                               ; preds = %29
  %34 = tail call ptr @ossl_decoder_instance_new(ptr noundef nonnull %0, ptr noundef nonnull %31) #7
  %35 = icmp eq ptr %34, null
  br i1 %35, label %36, label %39

36:                                               ; preds = %33
  %37 = getelementptr inbounds nuw i8, ptr %0, i64 56
  %38 = load ptr, ptr %37, align 8, !tbaa !61
  tail call void %38(ptr noundef nonnull %31) #7
  br label %collect_decoder_keymgmt.exit.thread.sink.split

39:                                               ; preds = %33
  %40 = load ptr, ptr %23, align 8, !tbaa !38
  %41 = tail call i32 @ossl_decoder_ctx_add_decoder_inst(ptr noundef %40, ptr noundef nonnull %34) #7
  %.not16.i = icmp eq i32 %41, 0
  br i1 %.not16.i, label %42, label %43

42:                                               ; preds = %39
  tail call void @ossl_decoder_instance_free(ptr noundef nonnull %34) #7
  br label %collect_decoder_keymgmt.exit.thread.sink.split

43:                                               ; preds = %39
  %44 = load i32, ptr %24, align 8, !tbaa !62
  %45 = add nsw i32 %44, 1
  store i32 %45, ptr %24, align 8, !tbaa !62
  br label %collect_decoder_keymgmt.exit

collect_decoder_keymgmt.exit:                     ; preds = %25, %43
  %.pr = load i8, ptr %5, align 4, !tbaa !43
  %.not22 = icmp ne i8 %.pr, 0
  %46 = add nuw nsw i32 %.028, 1
  %exitcond.not = icmp eq i32 %46, %19
  %or.cond = select i1 %.not22, i1 true, i1 %exitcond.not
  br i1 %or.cond, label %collect_decoder_keymgmt.exit.thread, label %25, !llvm.loop !63

collect_decoder_keymgmt.exit.thread.sink.split:   ; preds = %29, %36, %42
  store i8 1, ptr %5, align 4, !tbaa !43
  br label %collect_decoder_keymgmt.exit.thread

collect_decoder_keymgmt.exit.thread:              ; preds = %collect_decoder_keymgmt.exit, %collect_decoder_keymgmt.exit.thread.sink.split, %18, %12, %2
  ret void
}